target datalayout = "e-m:e-p270:32:32-p271:32:32-p272:64:64-i64:64-i128:128-f80:128-n8:16:32:64-S128"
target triple = "x86_64-pc-linux-gnu"

%struct.stbi_io_callbacks = type { ptr, ptr, ptr }
%struct.stbi__context = type { i32, i32, i32, i32, %struct.stbi_io_callbacks, ptr, i32, i32, [128 x i8], i32, ptr, ptr, ptr, ptr }
%struct.stbi__bmp_data = type { i32, i32, i32, i32, i32, i32, i32, i32, i32 }

; Function Attrs: nounwind uwtable
define void @stbi__rewind(ptr noundef %0) #0 {
  %2 = alloca ptr, align 8
  store ptr %0, ptr %2, align 8, !tbaa !3
  %3 = load ptr, ptr %2, align 8, !tbaa !3
  %4 = getelementptr inbounds nuw %struct.stbi__context, ptr %3, i32 0, i32 12
  %5 = load ptr, ptr %4, align 8, !tbaa !16
  %6 = load ptr, ptr %2, align 8, !tbaa !3
  %7 = getelementptr inbounds nuw %struct.stbi__context, ptr %6, i32 0, i32 10
  store ptr %5, ptr %7, align 8, !tbaa !17
  %8 = load ptr, ptr %2, align 8, !tbaa !3
  %9 = getelementptr inbounds nuw %struct.stbi__context, ptr %8, i32 0, i32 13
  %10 = load ptr, ptr %9, align 8, !tbaa !18
  %11 = load ptr, ptr %2, align 8, !tbaa !3
  %12 = getelementptr inbounds nuw %struct.stbi__context, ptr %11, i32 0, i32 11
  store ptr %10, ptr %12, align 8, !tbaa !19
  ret void
}

; Function Attrs: nounwind uwtable
define i32 @stbi__bmp_info(ptr noundef %0, ptr noundef %1, ptr noundef %2, ptr noundef %3) #0 {
  %5 = alloca i32, align 4
  %6 = alloca ptr, align 8
  %7 = alloca ptr, align 8
  %8 = alloca ptr, align 8
  %9 = alloca ptr, align 8
  %10 = alloca ptr, align 8
  %11 = alloca %struct.stbi__bmp_data, align 4
  %12 = alloca i32, align 4
  store ptr %0, ptr %6, align 8, !tbaa !3
  store ptr %1, ptr %7, align 8, !tbaa !28
  store ptr %2, ptr %8, align 8, !tbaa !28
  store ptr %3, ptr %9, align 8, !tbaa !28
  call void @llvm.lifetime.start.p0(i64 8, ptr %10) #13
  call void @llvm.lifetime.start.p0(i64 36, ptr %11) #13
  %13 = getelementptr inbounds nuw %struct.stbi__bmp_data, ptr %11, i32 0, i32 7
  store i32 255, ptr %13, align 4, !tbaa !38
  %14 = load ptr, ptr %6, align 8, !tbaa !3
  %15 = call ptr @stbi__bmp_parse_header(ptr noundef %14, ptr noundef %11)
  store ptr %15, ptr %10, align 8, !tbaa !3
  %16 = load ptr, ptr %10, align 8, !tbaa !3
  %17 = icmp eq ptr %16, null
  br i1 %17, label %18, label %20

18:                                               ; preds = %4
  %19 = load ptr, ptr %6, align 8, !tbaa !3
  call void @stbi__rewind(ptr noundef %19)
  store i32 0, ptr %5, align 4
  store i32 1, ptr %12, align 4
  br label %57

20:                                               ; preds = %4
  %21 = load ptr, ptr %7, align 8, !tbaa !28
  %22 = icmp ne ptr %21, null
  br i1 %22, label %23, label %28

23:                                               ; preds = %20
  %24 = load ptr, ptr %6, align 8, !tbaa !3
  %25 = getelementptr inbounds nuw %struct.stbi__context, ptr %24, i32 0, i32 0
  %26 = load i32, ptr %25, align 8, !tbaa !41
  %27 = load ptr, ptr %7, align 8, !tbaa !28
  store i32 %26, ptr %27, align 4, !tbaa !9
  br label %28

28:                                               ; preds = %23, %20
  %29 = load ptr, ptr %8, align 8, !tbaa !28
  %30 = icmp ne ptr %29, null
  br i1 %30, label %31, label %36

31:                                               ; preds = %28
  %32 = load ptr, ptr %6, align 8, !tbaa !3
  %33 = getelementptr inbounds nuw %struct.stbi__context, ptr %32, i32 0, i32 1
  %34 = load i32, ptr %33, align 4, !tbaa !40
  %35 = load ptr, ptr %8, align 8, !tbaa !28
  store i32 %34, ptr %35, align 4, !tbaa !9
  br label %36

36:                                               ; preds = %31, %28
  %37 = load ptr, ptr %9, align 8, !tbaa !28
  %38 = icmp ne ptr %37, null
  br i1 %38, label %39, label %56

39:                                               ; preds = %36
  %40 = getelementptr inbounds nuw %struct.stbi__bmp_data, ptr %11, i32 0, i32 0
  %41 = load i32, ptr %40, align 4, !tbaa !47
  %42 = icmp eq i32 %41, 24
  br i1 %42, label %43, label %49

43:                                               ; preds = %39
  %44 = getelementptr inbounds nuw %struct.stbi__bmp_data, ptr %11, i32 0, i32 6
  %45 = load i32, ptr %44, align 4, !tbaa !45
  %46 = icmp eq i32 %45, -16777216
  br i1 %46, label %47, label %49

47:                                               ; preds = %43
  %48 = load ptr, ptr %9, align 8, !tbaa !28
  store i32 3, ptr %48, align 4, !tbaa !9
  br label %55

49:                                               ; preds = %43, %39
  %50 = getelementptr inbounds nuw %struct.stbi__bmp_data, ptr %11, i32 0, i32 6
  %51 = load i32, ptr %50, align 4, !tbaa !45
  %52 = icmp ne i32 %51, 0
  %53 = select i1 %52, i32 4, i32 3
  %54 = load ptr, ptr %9, align 8, !tbaa !28
  store i32 %53, ptr %54, align 4, !tbaa !9
  br label %55

55:                                               ; preds = %49, %47
  br label %56

56:                                               ; preds = %55, %36
  store i32 1, ptr %5, align 4
  store i32 1, ptr %12, align 4
  br label %57

57:                                               ; preds = %56, %18
  call void @llvm.lifetime.end.p0(i64 36, ptr %11) #13
  call void @llvm.lifetime.end.p0(i64 8, ptr %10) #13
  %58 = load i32, ptr %5, align 4
  ret i32 %58
}