; Function Attrs: nounwind uwtable
define range(i32 0, 2) i32 @stbi__bmp_info(ptr noundef %0, ptr noundef writeonly captures(address_is_null) %1, ptr noundef writeonly captures(address_is_null) %2, ptr noundef writeonly captures(address_is_null) %3) local_unnamed_addr #2 {
  %5 = alloca %struct.stbi__bmp_data, align 4
  call void @llvm.lifetime.start.p0(i64 36, ptr nonnull %5) #37
  %6 = getelementptr inbounds nuw i8, ptr %5, i64 28
  store i32 255, ptr %6, align 4, !tbaa !38
  %7 = call ptr @stbi__bmp_parse_header(ptr noundef %0, ptr noundef nonnull %5)
  %8 = icmp eq ptr %7, null
  br i1 %8, label %9, label %16

9:                                                ; preds = %4
  %10 = getelementptr inbounds nuw i8, ptr %0, i64 208
  %11 = load ptr, ptr %10, align 8, !tbaa !13
  %12 = getelementptr inbounds nuw i8, ptr %0, i64 192
  store ptr %11, ptr %12, align 8, !tbaa !14
  %13 = getelementptr inbounds nuw i8, ptr %0, i64 216
  %14 = load ptr, ptr %13, align 8, !tbaa !15
  %15 = getelementptr inbounds nuw i8, ptr %0, i64 200
  store ptr %14, ptr %15, align 8, !tbaa !16
  br label %33

16:                                               ; preds = %4
  %.not = icmp eq ptr %1, null
  br i1 %.not, label %19, label %17

17:                                               ; preds = %16
  %18 = load i32, ptr %0, align 8, !tbaa !41
  store i32 %18, ptr %1, align 4, !tbaa !23
  br label %19

19:                                               ; preds = %17, %16
  %.not17 = icmp eq ptr %2, null
  br i1 %.not17, label %23, label %20

20:                                               ; preds = %19
  %21 = getelementptr inbounds nuw i8, ptr %0, i64 4
  %22 = load i32, ptr %21, align 4, !tbaa !40
  store i32 %22, ptr %2, align 4, !tbaa !23
  br label %23

23:                                               ; preds = %20, %19
  %.not18 = icmp eq ptr %3, null
  br i1 %.not18, label %33, label %24

24:                                               ; preds = %23
  %25 = load i32, ptr %5, align 4, !tbaa !47
  %26 = icmp eq i32 %25, 24
  %27 = getelementptr inbounds nuw i8, ptr %5, i64 24
  %28 = load i32, ptr %27, align 4
  %29 = icmp eq i32 %28, -16777216
  %or.cond = select i1 %26, i1 %29, i1 false
  br i1 %or.cond, label %30, label %31

30:                                               ; preds = %24
  store i32 3, ptr %3, align 4, !tbaa !23
  br label %33

31:                                               ; preds = %24
  %.not19 = icmp eq i32 %28, 0
  %32 = select i1 %.not19, i32 3, i32 4
  store i32 %32, ptr %3, align 4, !tbaa !23
  br label %33

33:                                               ; preds = %23, %31, %30, %9
  %.0 = phi i32 [ 0, %9 ], [ 1, %30 ], [ 1, %31 ], [ 1, %23 ]
  call void @llvm.lifetime.end.p0(i64 36, ptr nonnull %5) #37
  ret i32 %.0
}